target datalayout = "e-m:e-p270:32:32-p271:32:32-p272:64:64-i64:64-i128:128-f80:128-n8:16:32:64-S128"
target triple = "x86_64-pc-linux-gnu"

%struct.Extra_ImageNode_t_ = type { ptr, ptr, ptr, ptr, ptr, ptr }

; Function Attrs: nounwind uwtable
define internal void @Extra_bddImageTreeDelete_rec(ptr noundef %0) #0 {
  %2 = alloca ptr, align 8
  store ptr %0, ptr %2, align 8, !tbaa !37
  %3 = load ptr, ptr %2, align 8, !tbaa !37
  %4 = getelementptr inbounds nuw %struct.Extra_ImageNode_t_, ptr %3, i32 0, i32 3
  %5 = load ptr, ptr %4, align 8, !tbaa !86
  %6 = icmp ne ptr %5, null
  br i1 %6, label %7, label %11

7:                                                ; preds = %1
  %8 = load ptr, ptr %2, align 8, !tbaa !37
  %9 = getelementptr inbounds nuw %struct.Extra_ImageNode_t_, ptr %8, i32 0, i32 3
  %10 = load ptr, ptr %9, align 8, !tbaa !86
  call void @Extra_bddImageTreeDelete_rec(ptr noundef %10)
  br label %11

11:                                               ; preds = %7, %1
  %12 = load ptr, ptr %2, align 8, !tbaa !37
  %13 = getelementptr inbounds nuw %struct.Extra_ImageNode_t_, ptr %12, i32 0, i32 4
  %14 = load ptr, ptr %13, align 8, !tbaa !87
  %15 = icmp ne ptr %14, null
  br i1 %15, label %16, label %20

16:                                               ; preds = %11
  %17 = load ptr, ptr %2, align 8, !tbaa !37
  %18 = getelementptr inbounds nuw %struct.Extra_ImageNode_t_, ptr %17, i32 0, i32 4
  %19 = load ptr, ptr %18, align 8, !tbaa !87
  call void @Extra_bddImageTreeDelete_rec(ptr noundef %19)
  br label %20

20:                                               ; preds = %16, %11
  %21 = load ptr, ptr %2, align 8, !tbaa !37
  %22 = getelementptr inbounds nuw %struct.Extra_ImageNode_t_, ptr %21, i32 0, i32 1
  %23 = load ptr, ptr %22, align 8, !tbaa !78
  %24 = icmp ne ptr %23, null
  br i1 %24, label %25, label %32

25:                                               ; preds = %20
  %26 = load ptr, ptr %2, align 8, !tbaa !37
  %27 = getelementptr inbounds nuw %struct.Extra_ImageNode_t_, ptr %26, i32 0, i32 0
  %28 = load ptr, ptr %27, align 8, !tbaa !74
  %29 = load ptr, ptr %2, align 8, !tbaa !37
  %30 = getelementptr inbounds nuw %struct.Extra_ImageNode_t_, ptr %29, i32 0, i32 1
  %31 = load ptr, ptr %30, align 8, !tbaa !78
  call void @Cudd_RecursiveDeref(ptr noundef %28, ptr noundef %31)
  br label %32

32:                                               ; preds = %25, %20
  %33 = load ptr, ptr %2, align 8, !tbaa !37
  %34 = getelementptr inbounds nuw %struct.Extra_ImageNode_t_, ptr %33, i32 0, i32 2
  %35 = load ptr, ptr %34, align 8, !tbaa !80
  %36 = icmp ne ptr %35, null
  br i1 %36, label %37, label %44

37:                                               ; preds = %32
  %38 = load ptr, ptr %2, align 8, !tbaa !37
  %39 = getelementptr inbounds nuw %struct.Extra_ImageNode_t_, ptr %38, i32 0, i32 0
  %40 = load ptr, ptr %39, align 8, !tbaa !74
  %41 = load ptr, ptr %2, align 8, !tbaa !37
  %42 = getelementptr inbounds nuw %struct.Extra_ImageNode_t_, ptr %41, i32 0, i32 2
  %43 = load ptr, ptr %42, align 8, !tbaa !80
  call void @Cudd_RecursiveDeref(ptr noundef %40, ptr noundef %43)
  br label %44

44:                                               ; preds = %37, %32
  %45 = load ptr, ptr %2, align 8, !tbaa !37
  %46 = icmp ne ptr %45, null
  br i1 %46, label %47, label %49

47:                                               ; preds = %44
  %48 = load ptr, ptr %2, align 8, !tbaa !37
  call void @free(ptr noundef %48) #6
  store ptr null, ptr %2, align 8, !tbaa !37
  br label %50

49:                                               ; preds = %44
  br label %50

50:                                               ; preds = %49, %47
  ret void
}