; Function Attrs: nounwind uwtable
define internal fastcc void @Extra_bddImageTreeDelete_rec(ptr noundef captures(none) %0) unnamed_addr #0 {
  %2 = getelementptr inbounds nuw i8, ptr %0, i64 24
  %3 = load ptr, ptr %2, align 8, !tbaa !74
  %.not = icmp eq ptr %3, null
  br i1 %.not, label %5, label %4

4:                                                ; preds = %1
  tail call fastcc void @Extra_bddImageTreeDelete_rec(ptr noundef nonnull %3)
  br label %5

5:                                                ; preds = %4, %1
  %6 = getelementptr inbounds nuw i8, ptr %0, i64 32
  %7 = load ptr, ptr %6, align 8, !tbaa !75
  %.not16 = icmp eq ptr %7, null
  br i1 %.not16, label %9, label %8

8:                                                ; preds = %5
  tail call fastcc void @Extra_bddImageTreeDelete_rec(ptr noundef nonnull %7)
  br label %9

9:                                                ; preds = %8, %5
  %10 = getelementptr inbounds nuw i8, ptr %0, i64 8
  %11 = load ptr, ptr %10, align 8, !tbaa !58
  %.not17 = icmp eq ptr %11, null
  br i1 %.not17, label %14, label %12

12:                                               ; preds = %9
  %13 = load ptr, ptr %0, align 8, !tbaa !53
  tail call void @Cudd_RecursiveDeref(ptr noundef %13, ptr noundef nonnull %11) #10
  br label %14

14:                                               ; preds = %12, %9
  %15 = getelementptr inbounds nuw i8, ptr %0, i64 16
  %16 = load ptr, ptr %15, align 8, !tbaa !60
  %.not18 = icmp eq ptr %16, null
  br i1 %.not18, label %19, label %17

17:                                               ; preds = %14
  %18 = load ptr, ptr %0, align 8, !tbaa !53
  tail call void @Cudd_RecursiveDeref(ptr noundef %18, ptr noundef nonnull %16) #10
  br label %19

19:                                               ; preds = %17, %14
  tail call void @free(ptr noundef nonnull %0) #10
  ret void
}